; Function Attrs: mustprogress nounwind uwtable
define hidden void @_ZNK33vmask_first_or_last_true_boolNode4emitEP17C2_MacroAssemblerP13PhaseRegAlloc(ptr noundef nonnull align 8 dereferenceable(104) %0, ptr noundef %1, ptr noundef %2) unnamed_addr #3 align 2 {
  %4 = getelementptr inbounds i8, ptr %0, i64 72
  %5 = load ptr, ptr %4, align 8
  %6 = load ptr, ptr %5, align 8
  %7 = getelementptr inbounds i8, ptr %6, i64 8
  %8 = load ptr, ptr %7, align 8
  %9 = tail call noundef i32 %8(ptr noundef nonnull align 8 dereferenceable(8) %5) #23
  %10 = getelementptr inbounds i8, ptr %0, i64 80
  %11 = load ptr, ptr %10, align 8
  %12 = load ptr, ptr %11, align 8
  %13 = getelementptr inbounds i8, ptr %12, i64 8
  %14 = load ptr, ptr %13, align 8
  %15 = tail call noundef i32 %14(ptr noundef nonnull align 8 dereferenceable(8) %11) #23
  %16 = getelementptr inbounds i8, ptr %0, i64 88
  %17 = load ptr, ptr %16, align 8
  %18 = load ptr, ptr %17, align 8
  %19 = getelementptr inbounds i8, ptr %18, i64 8
  %20 = load ptr, ptr %19, align 8
  %21 = tail call noundef i32 %20(ptr noundef nonnull align 8 dereferenceable(8) %17) #23
  %22 = load ptr, ptr %0, align 8
  %23 = getelementptr inbounds i8, ptr %22, i64 328
  %24 = load ptr, ptr %23, align 8
  %25 = tail call noundef i32 %24(ptr noundef nonnull align 8 dereferenceable(104) %0) #23
  %26 = load ptr, ptr %4, align 8
  %27 = tail call noundef zeroext i8 @_ZN7Matcher25vector_element_basic_typeEPK8MachNodePK8MachOper(ptr noundef nonnull %0, ptr noundef %26) #23
  %28 = load ptr, ptr %4, align 8
  %29 = tail call noundef i32 @_ZN7Matcher13vector_lengthEPK8MachNodePK8MachOper(ptr noundef nonnull %0, ptr noundef %28) #23
  %30 = load ptr, ptr %4, align 8
  %31 = tail call noundef i32 @_ZNK8MachNode13operand_indexEPK8MachOper(ptr noundef nonnull align 8 dereferenceable(64) %0, ptr noundef %30) #23
  %32 = getelementptr inbounds i8, ptr %0, i64 8
  %33 = load ptr, ptr %32, align 8
  %34 = zext i32 %31 to i64
  %35 = getelementptr inbounds ptr, ptr %33, i64 %34
  %36 = load ptr, ptr %35, align 8
  %37 = tail call noundef i32 @_ZN7Matcher22vector_length_in_bytesEPK4Node(ptr noundef %36) #23
  switch i32 %37, label %40 [
    i32 4, label %_ZL22vector_length_encodingPK8MachNodeP8MachOper.exit
    i32 8, label %_ZL22vector_length_encodingPK8MachNodeP8MachOper.exit
    i32 16, label %_ZL22vector_length_encodingPK8MachNodeP8MachOper.exit
    i32 32, label %38
    i32 64, label %39
  ]

38:                                               ; preds = %3
  br label %_ZL22vector_length_encodingPK8MachNodeP8MachOper.exit

39:                                               ; preds = %3
  br label %_ZL22vector_length_encodingPK8MachNodeP8MachOper.exit

40:                                               ; preds = %3
  %41 = load ptr, ptr @g_assert_poison, align 8
  store i8 88, ptr %41, align 1
  tail call void @_Z28report_should_not_reach_herePKci(ptr noundef nonnull @.str.22, i32 noundef 1228) #24
  unreachable

_ZL22vector_length_encodingPK8MachNodeP8MachOper.exit: ; preds = %3, %3, %3, %38, %39
  %.0.i.i.i = phi i32 [ 2, %39 ], [ 1, %38 ], [ 0, %3 ], [ 0, %3 ], [ 0, %3 ]
  %42 = add i32 %9, 1
  %43 = add i32 %15, %42
  %44 = add i32 %21, %43
  %45 = load ptr, ptr %10, align 8
  %46 = load ptr, ptr %45, align 8
  %47 = getelementptr inbounds i8, ptr %46, i64 40
  %48 = load ptr, ptr %47, align 8
  %49 = tail call noundef i32 %48(ptr noundef nonnull align 8 dereferenceable(8) %45, ptr noundef %2, ptr noundef nonnull %0, i32 noundef %42) #23
  %or.cond.i.i = icmp ult i32 %49, 32
  %spec.select.i.i = select i1 %or.cond.i.i, i32 %49, i32 -1
  %50 = load ptr, ptr %4, align 8
  %51 = load ptr, ptr %50, align 8
  %52 = getelementptr inbounds i8, ptr %51, i64 40
  %53 = load ptr, ptr %52, align 8
  %54 = tail call noundef i32 %53(ptr noundef nonnull align 8 dereferenceable(8) %50, ptr noundef %2, ptr noundef nonnull %0, i32 noundef 1) #23
  %or.cond.i.i19 = icmp ult i32 %54, 32
  %spec.select.i.i20 = select i1 %or.cond.i.i19, i32 %54, i32 -1
  %55 = getelementptr inbounds i8, ptr %0, i64 96
  %56 = load ptr, ptr %55, align 8
  %57 = load ptr, ptr %56, align 8
  %58 = getelementptr inbounds i8, ptr %57, i64 40
  %59 = load ptr, ptr %58, align 8
  %60 = tail call noundef i32 %59(ptr noundef nonnull align 8 dereferenceable(8) %56, ptr noundef %2, ptr noundef nonnull %0, i32 noundef %44) #23
  %or.cond.i.i21 = icmp ult i32 %60, 32
  %spec.select.i.i22 = select i1 %or.cond.i.i21, i32 %60, i32 -1
  %61 = load ptr, ptr %16, align 8
  %62 = load ptr, ptr %61, align 8
  %63 = getelementptr inbounds i8, ptr %62, i64 40
  %64 = load ptr, ptr %63, align 8
  %65 = tail call noundef i32 %64(ptr noundef nonnull align 8 dereferenceable(8) %61, ptr noundef %2, ptr noundef nonnull %0, i32 noundef %43) #23
  %or.cond.i.i23 = icmp ult i32 %65, 32
  %spec.select.i.i24 = select i1 %or.cond.i.i23, i32 %65, i32 -1
  tail call void @_ZN17C2_MacroAssembler21vector_mask_operationEi8Register11XMMRegisterS1_S0_i9BasicTypei(ptr noundef nonnull align 8 dereferenceable(40) %1, i32 noundef %25, i32 %spec.select.i.i, i32 %spec.select.i.i20, i32 %spec.select.i.i22, i32 %spec.select.i.i24, i32 noundef %29, i8 noundef zeroext %27, i32 noundef %.0.i.i.i) #23
  ret void
}